target datalayout = "e-m:e-p270:32:32-p271:32:32-p272:64:64-i64:64-i128:128-f80:128-n8:16:32:64-S128"
target triple = "x86_64-pc-linux-gnu"

%struct._frame_data = type <{ i32, i32, i32, i32, i32, [4 x i8], i64, ptr, ptr, ptr, i8, i16, [5 x i8], %struct.nstime_t, %struct.nstime_t, i32, i32 }>
%struct.nstime_t = type { i64, i32 }
%struct.wtap_rec = type { i32, i32, i32, %struct.nstime_t, i32, %struct.nstime_t, i8, %union.anon, ptr, i8, %struct.Buffer, %struct.Buffer }
%union.anon = type { %struct.wtap_packet_header }
%struct.wtap_packet_header = type { i32, i32, i32, i32, %union.wtap_pseudo_header }
%union.wtap_pseudo_header = type { %struct.erf_mc_phdr }
%struct.erf_mc_phdr = type { %struct.erf_phdr, [16 x %struct.erf_ehdr], %union.anon.1 }
%struct.erf_phdr = type { i64, i8, i8, i16, i16, i16 }
%struct.erf_ehdr = type { i64 }
%union.anon.1 = type { i32 }
%struct.Buffer = type { ptr, i64, i64, i64 }
%struct.wtap_ft_specific_header = type { i32, i32 }
%struct.wtap_syscall_header = type { ptr, i32, i32, i64, i64, i32, i32, i16, i32, i16 }
%struct.wtap_systemd_journal_export_header = type { i32 }
%struct.wtap_custom_block_header = type { i32, i32, i8, %union.anon.2 }
%union.anon.2 = type { %struct.nflx }
%struct.nflx = type { i32, i32 }

; Function Attrs: nounwind null_pointer_is_valid sspstrong uwtable
define void @frame_data_init(ptr noundef %0, i32 noundef %1, ptr noundef %2, i64 noundef %3, i32 noundef %4) #3 {
  %6 = alloca ptr, align 8
  %7 = alloca i32, align 4
  %8 = alloca ptr, align 8
  %9 = alloca i64, align 8
  %10 = alloca i32, align 4
  store ptr %0, ptr %6, align 8
  store i32 %1, ptr %7, align 4
  store ptr %2, ptr %8, align 8
  store i64 %3, ptr %9, align 8
  store i32 %4, ptr %10, align 4
  %11 = load ptr, ptr %6, align 8
  %12 = getelementptr inbounds nuw %struct._frame_data, ptr %11, i32 0, i32 7
  store ptr null, ptr %12, align 8
  %13 = load i32, ptr %7, align 4
  %14 = load ptr, ptr %6, align 8
  %15 = getelementptr inbounds nuw %struct._frame_data, ptr %14, i32 0, i32 0
  store i32 %13, ptr %15, align 8
  %16 = load i32, ptr %7, align 4
  %17 = load ptr, ptr %6, align 8
  %18 = getelementptr inbounds nuw %struct._frame_data, ptr %17, i32 0, i32 1
  store i32 %16, ptr %18, align 4
  %19 = load i64, ptr %9, align 8
  %20 = load ptr, ptr %6, align 8
  %21 = getelementptr inbounds nuw %struct._frame_data, ptr %20, i32 0, i32 6
  store i64 %19, ptr %21, align 8
  %22 = load ptr, ptr %6, align 8
  %23 = getelementptr inbounds nuw %struct._frame_data, ptr %22, i32 0, i32 11
  %24 = load i16, ptr %23, align 1
  %25 = and i16 %24, -2
  %26 = or i16 %25, 1
  store i16 %26, ptr %23, align 1
  %27 = load ptr, ptr %6, align 8
  %28 = getelementptr inbounds nuw %struct._frame_data, ptr %27, i32 0, i32 11
  %29 = load i16, ptr %28, align 1
  %30 = and i16 %29, -3
  %31 = or i16 %30, 0
  store i16 %31, ptr %28, align 1
  %32 = load ptr, ptr %6, align 8
  %33 = getelementptr inbounds nuw %struct._frame_data, ptr %32, i32 0, i32 8
  store ptr null, ptr %33, align 8
  %34 = load ptr, ptr %6, align 8
  %35 = getelementptr inbounds nuw %struct._frame_data, ptr %34, i32 0, i32 11
  %36 = load i16, ptr %35, align 1
  %37 = and i16 %36, -5
  %38 = or i16 %37, 0
  store i16 %38, ptr %35, align 1
  %39 = load ptr, ptr %6, align 8
  %40 = getelementptr inbounds nuw %struct._frame_data, ptr %39, i32 0, i32 11
  %41 = load i16, ptr %40, align 1
  %42 = and i16 %41, -9
  %43 = or i16 %42, 0
  store i16 %43, ptr %40, align 1
  %44 = load ptr, ptr %6, align 8
  %45 = getelementptr inbounds nuw %struct._frame_data, ptr %44, i32 0, i32 11
  %46 = load i16, ptr %45, align 1
  %47 = and i16 %46, -17
  %48 = or i16 %47, 0
  store i16 %48, ptr %45, align 1
  %49 = load ptr, ptr %6, align 8
  %50 = getelementptr inbounds nuw %struct._frame_data, ptr %49, i32 0, i32 11
  %51 = load i16, ptr %50, align 1
  %52 = and i16 %51, -33
  %53 = or i16 %52, 0
  store i16 %53, ptr %50, align 1
  %54 = load ptr, ptr %6, align 8
  %55 = getelementptr inbounds nuw %struct._frame_data, ptr %54, i32 0, i32 11
  %56 = load i16, ptr %55, align 1
  %57 = and i16 %56, -65
  %58 = or i16 %57, 0
  store i16 %58, ptr %55, align 1
  %59 = load ptr, ptr %8, align 8
  %60 = getelementptr inbounds nuw %struct.wtap_rec, ptr %59, i32 0, i32 1
  %61 = load i32, ptr %60, align 4
  %62 = and i32 %61, 1
  %63 = icmp ne i32 %62, 0
  %64 = select i1 %63, i32 1, i32 0
  %65 = load ptr, ptr %6, align 8
  %66 = getelementptr inbounds nuw %struct._frame_data, ptr %65, i32 0, i32 11
  %67 = trunc i32 %64 to i16
  %68 = load i16, ptr %66, align 1
  %69 = and i16 %67, 1
  %70 = shl i16 %69, 7
  %71 = and i16 %68, -129
  %72 = or i16 %71, %70
  store i16 %72, ptr %66, align 1
  %73 = load ptr, ptr %6, align 8
  %74 = getelementptr inbounds nuw %struct._frame_data, ptr %73, i32 0, i32 10
  store i8 0, ptr %74, align 8
  %75 = load ptr, ptr %8, align 8
  %76 = getelementptr inbounds nuw %struct.wtap_rec, ptr %75, i32 0, i32 0
  %77 = load i32, ptr %76, align 8
  switch i32 %77, label %213 [
    i32 0, label %78
    i32 1, label %99
    i32 2, label %99
    i32 3, label %120
    i32 4, label %141
    i32 5, label %162
  ]

78:                                               ; preds = %5
  %79 = load ptr, ptr %8, align 8
  %80 = getelementptr inbounds nuw %struct.wtap_rec, ptr %79, i32 0, i32 7
  %81 = getelementptr inbounds nuw %struct.wtap_packet_header, ptr %80, i32 0, i32 1
  %82 = load i32, ptr %81, align 4
  %83 = load ptr, ptr %6, align 8
  %84 = getelementptr inbounds nuw %struct._frame_data, ptr %83, i32 0, i32 2
  store i32 %82, ptr %84, align 8
  %85 = load i32, ptr %10, align 4
  %86 = load ptr, ptr %8, align 8
  %87 = getelementptr inbounds nuw %struct.wtap_rec, ptr %86, i32 0, i32 7
  %88 = getelementptr inbounds nuw %struct.wtap_packet_header, ptr %87, i32 0, i32 1
  %89 = load i32, ptr %88, align 4
  %90 = add i32 %85, %89
  %91 = load ptr, ptr %6, align 8
  %92 = getelementptr inbounds nuw %struct._frame_data, ptr %91, i32 0, i32 4
  store i32 %90, ptr %92, align 8
  %93 = load ptr, ptr %8, align 8
  %94 = getelementptr inbounds nuw %struct.wtap_rec, ptr %93, i32 0, i32 7
  %95 = getelementptr inbounds nuw %struct.wtap_packet_header, ptr %94, i32 0, i32 0
  %96 = load i32, ptr %95, align 8
  %97 = load ptr, ptr %6, align 8
  %98 = getelementptr inbounds nuw %struct._frame_data, ptr %97, i32 0, i32 3
  store i32 %96, ptr %98, align 4
  br label %213

99:                                               ; preds = %5, %5
  %100 = load ptr, ptr %8, align 8
  %101 = getelementptr inbounds nuw %struct.wtap_rec, ptr %100, i32 0, i32 7
  %102 = getelementptr inbounds nuw %struct.wtap_ft_specific_header, ptr %101, i32 0, i32 1
  %103 = load i32, ptr %102, align 4
  %104 = load ptr, ptr %6, align 8
  %105 = getelementptr inbounds nuw %struct._frame_data, ptr %104, i32 0, i32 2
  store i32 %103, ptr %105, align 8
  %106 = load i32, ptr %10, align 4
  %107 = load ptr, ptr %8, align 8
  %108 = getelementptr inbounds nuw %struct.wtap_rec, ptr %107, i32 0, i32 7
  %109 = getelementptr inbounds nuw %struct.wtap_ft_specific_header, ptr %108, i32 0, i32 1
  %110 = load i32, ptr %109, align 4
  %111 = add i32 %106, %110
  %112 = load ptr, ptr %6, align 8
  %113 = getelementptr inbounds nuw %struct._frame_data, ptr %112, i32 0, i32 4
  store i32 %111, ptr %113, align 8
  %114 = load ptr, ptr %8, align 8
  %115 = getelementptr inbounds nuw %struct.wtap_rec, ptr %114, i32 0, i32 7
  %116 = getelementptr inbounds nuw %struct.wtap_ft_specific_header, ptr %115, i32 0, i32 1
  %117 = load i32, ptr %116, align 4
  %118 = load ptr, ptr %6, align 8
  %119 = getelementptr inbounds nuw %struct._frame_data, ptr %118, i32 0, i32 3
  store i32 %117, ptr %119, align 4
  br label %213

120:                                              ; preds = %5
  %121 = load ptr, ptr %8, align 8
  %122 = getelementptr inbounds nuw %struct.wtap_rec, ptr %121, i32 0, i32 7
  %123 = getelementptr inbounds nuw %struct.wtap_syscall_header, ptr %122, i32 0, i32 5
  %124 = load i32, ptr %123, align 8
  %125 = load ptr, ptr %6, align 8
  %126 = getelementptr inbounds nuw %struct._frame_data, ptr %125, i32 0, i32 2
  store i32 %124, ptr %126, align 8
  %127 = load i32, ptr %10, align 4
  %128 = load ptr, ptr %8, align 8
  %129 = getelementptr inbounds nuw %struct.wtap_rec, ptr %128, i32 0, i32 7
  %130 = getelementptr inbounds nuw %struct.wtap_syscall_header, ptr %129, i32 0, i32 5
  %131 = load i32, ptr %130, align 8
  %132 = add i32 %127, %131
  %133 = load ptr, ptr %6, align 8
  %134 = getelementptr inbounds nuw %struct._frame_data, ptr %133, i32 0, i32 4
  store i32 %132, ptr %134, align 8
  %135 = load ptr, ptr %8, align 8
  %136 = getelementptr inbounds nuw %struct.wtap_rec, ptr %135, i32 0, i32 7
  %137 = getelementptr inbounds nuw %struct.wtap_syscall_header, ptr %136, i32 0, i32 6
  %138 = load i32, ptr %137, align 4
  %139 = load ptr, ptr %6, align 8
  %140 = getelementptr inbounds nuw %struct._frame_data, ptr %139, i32 0, i32 3
  store i32 %138, ptr %140, align 4
  br label %213

141:                                              ; preds = %5
  %142 = load ptr, ptr %8, align 8
  %143 = getelementptr inbounds nuw %struct.wtap_rec, ptr %142, i32 0, i32 7
  %144 = getelementptr inbounds nuw %struct.wtap_systemd_journal_export_header, ptr %143, i32 0, i32 0
  %145 = load i32, ptr %144, align 8
  %146 = load ptr, ptr %6, align 8
  %147 = getelementptr inbounds nuw %struct._frame_data, ptr %146, i32 0, i32 2
  store i32 %145, ptr %147, align 8
  %148 = load i32, ptr %10, align 4
  %149 = load ptr, ptr %8, align 8
  %150 = getelementptr inbounds nuw %struct.wtap_rec, ptr %149, i32 0, i32 7
  %151 = getelementptr inbounds nuw %struct.wtap_systemd_journal_export_header, ptr %150, i32 0, i32 0
  %152 = load i32, ptr %151, align 8
  %153 = add i32 %148, %152
  %154 = load ptr, ptr %6, align 8
  %155 = getelementptr inbounds nuw %struct._frame_data, ptr %154, i32 0, i32 4
  store i32 %153, ptr %155, align 8
  %156 = load ptr, ptr %8, align 8
  %157 = getelementptr inbounds nuw %struct.wtap_rec, ptr %156, i32 0, i32 7
  %158 = getelementptr inbounds nuw %struct.wtap_systemd_journal_export_header, ptr %157, i32 0, i32 0
  %159 = load i32, ptr %158, align 8
  %160 = load ptr, ptr %6, align 8
  %161 = getelementptr inbounds nuw %struct._frame_data, ptr %160, i32 0, i32 3
  store i32 %159, ptr %161, align 4
  br label %213

162:                                              ; preds = %5
  %163 = load ptr, ptr %8, align 8
  %164 = getelementptr inbounds nuw %struct.wtap_rec, ptr %163, i32 0, i32 7
  %165 = getelementptr inbounds nuw %struct.wtap_custom_block_header, ptr %164, i32 0, i32 1
  %166 = load i32, ptr %165, align 4
  switch i32 %166, label %191 [
    i32 10949, label %167
  ]

167:                                              ; preds = %162
  %168 = load ptr, ptr %8, align 8
  %169 = getelementptr inbounds nuw %struct.wtap_rec, ptr %168, i32 0, i32 7
  %170 = getelementptr inbounds nuw %struct.wtap_custom_block_header, ptr %169, i32 0, i32 0
  %171 = load i32, ptr %170, align 8
  %172 = sub i32 %171, 4
  %173 = load ptr, ptr %6, align 8
  %174 = getelementptr inbounds nuw %struct._frame_data, ptr %173, i32 0, i32 2
  store i32 %172, ptr %174, align 8
  %175 = load i32, ptr %10, align 4
  %176 = load ptr, ptr %8, align 8
  %177 = getelementptr inbounds nuw %struct.wtap_rec, ptr %176, i32 0, i32 7
  %178 = getelementptr inbounds nuw %struct.wtap_custom_block_header, ptr %177, i32 0, i32 0
  %179 = load i32, ptr %178, align 8
  %180 = add i32 %175, %179
  %181 = sub i32 %180, 4
  %182 = load ptr, ptr %6, align 8
  %183 = getelementptr inbounds nuw %struct._frame_data, ptr %182, i32 0, i32 4
  store i32 %181, ptr %183, align 8
  %184 = load ptr, ptr %8, align 8
  %185 = getelementptr inbounds nuw %struct.wtap_rec, ptr %184, i32 0, i32 7
  %186 = getelementptr inbounds nuw %struct.wtap_custom_block_header, ptr %185, i32 0, i32 0
  %187 = load i32, ptr %186, align 8
  %188 = sub i32 %187, 4
  %189 = load ptr, ptr %6, align 8
  %190 = getelementptr inbounds nuw %struct._frame_data, ptr %189, i32 0, i32 3
  store i32 %188, ptr %190, align 4
  br label %212

191:                                              ; preds = %162
  %192 = load ptr, ptr %8, align 8
  %193 = getelementptr inbounds nuw %struct.wtap_rec, ptr %192, i32 0, i32 7
  %194 = getelementptr inbounds nuw %struct.wtap_custom_block_header, ptr %193, i32 0, i32 0
  %195 = load i32, ptr %194, align 8
  %196 = load ptr, ptr %6, align 8
  %197 = getelementptr inbounds nuw %struct._frame_data, ptr %196, i32 0, i32 2
  store i32 %195, ptr %197, align 8
  %198 = load i32, ptr %10, align 4
  %199 = load ptr, ptr %8, align 8
  %200 = getelementptr inbounds nuw %struct.wtap_rec, ptr %199, i32 0, i32 7
  %201 = getelementptr inbounds nuw %struct.wtap_custom_block_header, ptr %200, i32 0, i32 0
  %202 = load i32, ptr %201, align 8
  %203 = add i32 %198, %202
  %204 = load ptr, ptr %6, align 8
  %205 = getelementptr inbounds nuw %struct._frame_data, ptr %204, i32 0, i32 4
  store i32 %203, ptr %205, align 8
  %206 = load ptr, ptr %8, align 8
  %207 = getelementptr inbounds nuw %struct.wtap_rec, ptr %206, i32 0, i32 7
  %208 = getelementptr inbounds nuw %struct.wtap_custom_block_header, ptr %207, i32 0, i32 0
  %209 = load i32, ptr %208, align 8
  %210 = load ptr, ptr %6, align 8
  %211 = getelementptr inbounds nuw %struct._frame_data, ptr %210, i32 0, i32 3
  store i32 %209, ptr %211, align 4
  br label %212

212:                                              ; preds = %191, %167
  br label %213

213:                                              ; preds = %5, %212, %141, %120, %99, %78
  br label %214

214:                                              ; preds = %213
  br label %215

215:                                              ; preds = %214
  %216 = load ptr, ptr %8, align 8
  %217 = getelementptr inbounds nuw %struct.wtap_rec, ptr %216, i32 0, i32 4
  %218 = load i32, ptr %217, align 8
  %219 = load ptr, ptr %6, align 8
  %220 = getelementptr inbounds nuw %struct._frame_data, ptr %219, i32 0, i32 11
  %221 = trunc i32 %218 to i16
  %222 = load i16, ptr %220, align 1
  %223 = and i16 %221, 15
  %224 = shl i16 %223, 10
  %225 = and i16 %222, -15361
  %226 = or i16 %225, %224
  store i16 %226, ptr %220, align 1
  %227 = load ptr, ptr %6, align 8
  %228 = getelementptr inbounds nuw %struct._frame_data, ptr %227, i32 0, i32 13
  %229 = load ptr, ptr %8, align 8
  %230 = getelementptr inbounds nuw %struct.wtap_rec, ptr %229, i32 0, i32 3
  call void @llvm.memcpy.p0.p0.i64(ptr align 8 %228, ptr align 8 %230, i64 16, i1 false)
  %231 = load ptr, ptr %6, align 8
  %232 = getelementptr inbounds nuw %struct._frame_data, ptr %231, i32 0, i32 11
  %233 = load i16, ptr %232, align 1
  %234 = and i16 %233, -257
  %235 = or i16 %234, 0
  store i16 %235, ptr %232, align 1
  %236 = load ptr, ptr %6, align 8
  %237 = getelementptr inbounds nuw %struct._frame_data, ptr %236, i32 0, i32 11
  %238 = load i16, ptr %237, align 1
  %239 = and i16 %238, -513
  %240 = or i16 %239, 0
  store i16 %240, ptr %237, align 1
  %241 = load ptr, ptr %6, align 8
  %242 = getelementptr inbounds nuw %struct._frame_data, ptr %241, i32 0, i32 9
  store ptr null, ptr %242, align 8
  %243 = load ptr, ptr %6, align 8
  %244 = getelementptr inbounds nuw %struct._frame_data, ptr %243, i32 0, i32 14
  %245 = getelementptr inbounds nuw %struct.nstime_t, ptr %244, i32 0, i32 0
  store i64 0, ptr %245, align 8
  %246 = load ptr, ptr %6, align 8
  %247 = getelementptr inbounds nuw %struct._frame_data, ptr %246, i32 0, i32 14
  %248 = getelementptr inbounds nuw %struct.nstime_t, ptr %247, i32 0, i32 1
  store i32 0, ptr %248, align 8
  %249 = load ptr, ptr %6, align 8
  %250 = getelementptr inbounds nuw %struct._frame_data, ptr %249, i32 0, i32 15
  store i32 0, ptr %250, align 8
  %251 = load ptr, ptr %6, align 8
  %252 = getelementptr inbounds nuw %struct._frame_data, ptr %251, i32 0, i32 16
  store i32 0, ptr %252, align 4
  ret void
}